target datalayout = "e-m:e-p270:32:32-p271:32:32-p272:64:64-i64:64-i128:128-f80:128-n8:16:32:64-S128"
target triple = "x86_64-pc-linux-gnu"

; Function Attrs: mustprogress uwtable
define hidden void @_Z20exec_Z3_mk_seq_indexR11z3_replayer(ptr noundef nonnull align 8 dereferenceable(8) %0) #0 {
  %2 = alloca ptr, align 8
  %3 = alloca ptr, align 8
  store ptr %0, ptr %2, align 8, !tbaa !10
  call void @llvm.lifetime.start.p0(i64 8, ptr %3) #3
  %4 = load ptr, ptr %2, align 8, !tbaa !10
  %5 = call noundef ptr @_ZNK11z3_replayer7get_objEj(ptr noundef nonnull align 8 dereferenceable(8) %4, i32 noundef 0)
  %6 = load ptr, ptr %2, align 8, !tbaa !10
  %7 = call noundef ptr @_ZNK11z3_replayer7get_objEj(ptr noundef nonnull align 8 dereferenceable(8) %6, i32 noundef 1)
  %8 = load ptr, ptr %2, align 8, !tbaa !10
  %9 = call noundef ptr @_ZNK11z3_replayer7get_objEj(ptr noundef nonnull align 8 dereferenceable(8) %8, i32 noundef 2)
  %10 = load ptr, ptr %2, align 8, !tbaa !10
  %11 = call noundef ptr @_ZNK11z3_replayer7get_objEj(ptr noundef nonnull align 8 dereferenceable(8) %10, i32 noundef 3)
  %12 = call ptr @Z3_mk_seq_index(ptr noundef %5, ptr noundef %7, ptr noundef %9, ptr noundef %11)
  store ptr %12, ptr %3, align 8, !tbaa !26
  %13 = load ptr, ptr %2, align 8, !tbaa !10
  %14 = load ptr, ptr %3, align 8, !tbaa !26
  call void @_ZN11z3_replayer12store_resultEPv(ptr noundef nonnull align 8 dereferenceable(8) %13, ptr noundef %14)
  call void @llvm.lifetime.end.p0(i64 8, ptr %3) #3
  ret void
}